target datalayout = "e-m:e-p270:32:32-p271:32:32-p272:64:64-i64:64-i128:128-f80:128-n8:16:32:64-S128"
target triple = "x86_64-pc-linux-gnu"

%"struct.std::_Rb_tree_key_compare" = type { %"struct.std::less" }
%"struct.std::less" = type { i8 }
%"struct.std::_Rb_tree_header" = type { %"struct.std::_Rb_tree_node_base", i64 }
%"struct.std::_Rb_tree_node_base" = type { i32, ptr, ptr, ptr }
%"class.std::__cxx11::basic_string" = type { %"struct.std::__cxx11::basic_string<char>::_Alloc_hider", i64, %union.anon }
%"struct.std::__cxx11::basic_string<char>::_Alloc_hider" = type { ptr }
%union.anon = type { i64, [8 x i8] }
%"class.casadi::FunctionInternal" = type { %"class.casadi::ProtoFunction", i8, i8, i64, i64, %"class.std::vector.6", %"class.std::vector.6", %"class.std::vector.10", %"class.std::vector.10", %"class.std::vector.15", %"class.std::vector.15", i8, i8, %"class.std::__cxx11::basic_string", %"class.std::__cxx11::basic_string", %"class.std::__cxx11::basic_string", i8, ptr, ptr, ptr, %"class.std::map", i8, %"class.std::map", %"class.std::map.23", [2 x %"class.std::vector.10"], %"class.casadi::Function", ptr, %"class.std::__cxx11::basic_string", %"class.casadi::Importer", %"class.std::map", double, i8, i8, i8, i8, i8, i8, i8, i8, double, double, i64, i8, %"class.std::map", double, %"class.std::__cxx11::basic_string", i8, i8, i64, i8, i8, i8, %"class.std::__cxx11::basic_string", %"class.std::__cxx11::basic_string", %"class.std::map", %"class.std::map", %"class.std::map", %"class.std::map", %"class.casadi::Function", i64, i64, i64, i64, i64, i64, i64, i64, i64 }
%"class.casadi::ProtoFunction" = type { %"class.casadi::SharedObjectInternal", %"class.std::__cxx11::basic_string", i8, i8, i8, i8, i8, %"class.std::vector", %"class.std::stack" }
%"class.casadi::SharedObjectInternal" = type { ptr, i64, ptr }
%"class.std::vector" = type { %"struct.std::_Vector_base" }
%"struct.std::_Vector_base" = type { %"struct.std::_Vector_base<void *, std::allocator<void *>>::_Vector_impl" }
%"struct.std::_Vector_base<void *, std::allocator<void *>>::_Vector_impl" = type { %"struct.std::_Vector_base<void *, std::allocator<void *>>::_Vector_impl_data" }
%"struct.std::_Vector_base<void *, std::allocator<void *>>::_Vector_impl_data" = type { ptr, ptr, ptr }
%"class.std::stack" = type { %"class.std::deque" }
%"class.std::deque" = type { %"class.std::_Deque_base" }
%"class.std::_Deque_base" = type { %"struct.std::_Deque_base<int, std::allocator<int>>::_Deque_impl" }
%"struct.std::_Deque_base<int, std::allocator<int>>::_Deque_impl" = type { %"struct.std::_Deque_base<int, std::allocator<int>>::_Deque_impl_data" }
%"struct.std::_Deque_base<int, std::allocator<int>>::_Deque_impl_data" = type { ptr, i64, %"struct.std::_Deque_iterator", %"struct.std::_Deque_iterator" }
%"struct.std::_Deque_iterator" = type { ptr, ptr, ptr, ptr }
%"class.std::vector.6" = type { %"struct.std::_Bvector_base" }
%"struct.std::_Bvector_base" = type { %"struct.std::_Bvector_base<std::allocator<bool>>::_Bvector_impl" }
%"struct.std::_Bvector_base<std::allocator<bool>>::_Bvector_impl" = type { %"struct.std::_Bvector_base<std::allocator<bool>>::_Bvector_impl_data" }
%"struct.std::_Bvector_base<std::allocator<bool>>::_Bvector_impl_data" = type { %"struct.std::_Bit_iterator", %"struct.std::_Bit_iterator", ptr }
%"struct.std::_Bit_iterator" = type { %"struct.std::_Bit_iterator_base.base", [4 x i8] }
%"struct.std::_Bit_iterator_base.base" = type <{ ptr, i32 }>
%"class.std::vector.10" = type { %"struct.std::_Vector_base.11" }
%"struct.std::_Vector_base.11" = type { %"struct.std::_Vector_base<casadi::Sparsity, std::allocator<casadi::Sparsity>>::_Vector_impl" }
%"struct.std::_Vector_base<casadi::Sparsity, std::allocator<casadi::Sparsity>>::_Vector_impl" = type { %"struct.std::_Vector_base<casadi::Sparsity, std::allocator<casadi::Sparsity>>::_Vector_impl_data" }
%"struct.std::_Vector_base<casadi::Sparsity, std::allocator<casadi::Sparsity>>::_Vector_impl_data" = type { ptr, ptr, ptr }
%"class.std::vector.15" = type { %"struct.std::_Vector_base.16" }
%"struct.std::_Vector_base.16" = type { %"struct.std::_Vector_base<std::__cxx11::basic_string<char>, std::allocator<std::__cxx11::basic_string<char>>>::_Vector_impl" }
%"struct.std::_Vector_base<std::__cxx11::basic_string<char>, std::allocator<std::__cxx11::basic_string<char>>>::_Vector_impl" = type { %"struct.std::_Vector_base<std::__cxx11::basic_string<char>, std::allocator<std::__cxx11::basic_string<char>>>::_Vector_impl_data" }
%"struct.std::_Vector_base<std::__cxx11::basic_string<char>, std::allocator<std::__cxx11::basic_string<char>>>::_Vector_impl_data" = type { ptr, ptr, ptr }
%"class.std::map.23" = type { %"class.std::_Rb_tree.24" }
%"class.std::_Rb_tree.24" = type { %"struct.std::_Rb_tree<std::__cxx11::basic_string<char>, std::pair<const std::__cxx11::basic_string<char>, casadi::WeakRef>, std::_Select1st<std::pair<const std::__cxx11::basic_string<char>, casadi::WeakRef>>, std::less<std::__cxx11::basic_string<char>>>::_Rb_tree_impl" }
%"struct.std::_Rb_tree<std::__cxx11::basic_string<char>, std::pair<const std::__cxx11::basic_string<char>, casadi::WeakRef>, std::_Select1st<std::pair<const std::__cxx11::basic_string<char>, casadi::WeakRef>>, std::less<std::__cxx11::basic_string<char>>>::_Rb_tree_impl" = type { %"struct.std::_Rb_tree_key_compare", %"struct.std::_Rb_tree_header" }
%"class.casadi::Importer" = type { %"class.casadi::SharedObject" }
%"class.casadi::SharedObject" = type { ptr }
%"class.std::map" = type { %"class.std::_Rb_tree" }
%"class.std::_Rb_tree" = type { %"struct.std::_Rb_tree<std::__cxx11::basic_string<char>, std::pair<const std::__cxx11::basic_string<char>, casadi::GenericType>, std::_Select1st<std::pair<const std::__cxx11::basic_string<char>, casadi::GenericType>>, std::less<std::__cxx11::basic_string<char>>>::_Rb_tree_impl" }
%"struct.std::_Rb_tree<std::__cxx11::basic_string<char>, std::pair<const std::__cxx11::basic_string<char>, casadi::GenericType>, std::_Select1st<std::pair<const std::__cxx11::basic_string<char>, casadi::GenericType>>, std::less<std::__cxx11::basic_string<char>>>::_Rb_tree_impl" = type { %"struct.std::_Rb_tree_key_compare", %"struct.std::_Rb_tree_header" }
%"class.casadi::Function" = type { %"class.casadi::SharedObject" }

; Function Attrs: mustprogress uwtable
define noundef i64 @_ZN6casadi10FiniteDiff8get_n_inEv(ptr noundef nonnull align 8 dereferenceable(1392) %0) unnamed_addr #4 align 2 {
  %2 = alloca ptr, align 8
  store ptr %0, ptr %2, align 8
  %3 = load ptr, ptr %2, align 8
  %4 = getelementptr inbounds %"class.casadi::FunctionInternal", ptr %3, i32 0, i32 25
  %5 = call noundef i64 @_ZNK6casadi8Function4n_inEv(ptr noundef nonnull align 8 dereferenceable(8) %4)
  %6 = getelementptr inbounds %"class.casadi::FunctionInternal", ptr %3, i32 0, i32 25
  %7 = call noundef i64 @_ZNK6casadi8Function5n_outEv(ptr noundef nonnull align 8 dereferenceable(8) %6)
  %8 = add nsw i64 %5, %7
  %9 = getelementptr inbounds %"class.casadi::FunctionInternal", ptr %3, i32 0, i32 25
  %10 = call noundef i64 @_ZNK6casadi8Function4n_inEv(ptr noundef nonnull align 8 dereferenceable(8) %9)
  %11 = add nsw i64 %8, %10
  ret i64 %11
}