; Function Attrs: mustprogress uwtable
define noundef i64 @_ZN6casadi10FiniteDiff8get_n_inEv(ptr noundef nonnull align 8 dereferenceable(1392) %0) unnamed_addr #3 align 2 {
  %2 = getelementptr inbounds i8, ptr %0, i64 704
  %3 = tail call noundef i64 @_ZNK6casadi8Function4n_inEv(ptr noundef nonnull align 8 dereferenceable(8) %2)
  %4 = tail call noundef i64 @_ZNK6casadi8Function5n_outEv(ptr noundef nonnull align 8 dereferenceable(8) %2)
  %5 = add nsw i64 %4, %3
  %6 = tail call noundef i64 @_ZNK6casadi8Function4n_inEv(ptr noundef nonnull align 8 dereferenceable(8) %2)
  %7 = add nsw i64 %5, %6
  ret i64 %7
}